Certificate:
    Data:
        Version: 3 (0x2)
        Serial Number: 16386598155310413425 (0xe368e433cc593671)
    Signature Algorithm: sha256WithRSAEncryption
        Issuer: C=SP, ST=Barcelona, O=i2cat, OU=X.509, CN=CAROOT, L=Barcelona
        Validity
            Not Before: Mar 15 17:51:00 2016 GMT
            Not After : Mar 13 17:51:00 2026 GMT
        Subject: C=SP, ST=Barcelona, O=i2cat, OU=X.509, CN=CAROOT, L=Barcelona
        Subject Public Key Info:
            Public Key Algorithm: rsaEncryption
                Public-Key: (2048 bit)
                Modulus:
                    00:b5:6b:b9:68:15:65:b8:3c:61:5e:cd:9e:b6:41:
                    bc:d7:9a:59:76:6f:e0:e7:ca:82:f6:e2:04:95:44:
                    30:85:46:9c:25:de:0f:b4:de:3a:dc:89:be:4c:13:
                    46:8b:26:6b:75:01:a8:87:56:b1:3e:5c:f4:3e:e6:
                    88:6c:8b:66:5b:35:bc:2a:3d:3b:e9:20:ba:70:9f:
                    15:4f:7d:77:17:a6:3e:91:9f:30:96:89:a3:f8:43:
                    97:a6:40:66:b7:cb:d8:a5:b9:d6:22:75:e3:46:d0:
                    76:fe:96:c1:c0:90:ca:b1:66:00:12:70:ca:68:0c:
                    f5:96:8a:f8:ce:79:a7:7e:f7:3a:df:c6:ef:1e:39:
                    b5:7c:dc:ae:41:36:44:09:43:73:e0:46:4b:85:f6:
                    ab:8c:d5:07:2b:8a:bc:a2:2e:1f:2c:b2:d1:cc:ce:
                    25:1a:58:b4:74:ed:d4:1e:83:e6:40:0e:4e:cd:d9:
                    57:21:e3:33:59:06:6c:d9:e0:45:6c:e0:74:e9:35:
                    04:00:27:57:bc:5a:65:5b:b2:8f:24:56:16:fd:f9:
                    6b:7d:e3:58:82:ad:af:7e:3d:7d:39:d2:13:d2:bd:
                    c1:78:1e:d3:d8:fd:90:d5:fc:dd:b4:a0:02:60:41:
                    1e:c9:28:4d:99:ff:36:15:4c:db:6c:f3:80:ff:e8:
                    8b:9b
                Exponent: 65537 (0x10001)
        X509v3 extensions:
            X509v3 Subject Key Identifier: 
                98:DA:C6:C9:05:96:B6:4E:55:32:B0:EF:C4:DE:84:BD:B0:17:A8:73
            X509v3 Authority Key Identifier: 
                keyid:98:DA:C6:C9:05:96:B6:4E:55:32:B0:EF:C4:DE:84:BD:B0:17:A8:73

            X509v3 Basic Constraints: 
                CA:TRUE
    Signature Algorithm: sha256WithRSAEncryption
         29:e5:4f:f5:85:0e:45:df:b9:c7:fc:50:91:27:a2:75:68:56:
         cf:80:0c:49:6e:95:50:bb:28:54:5d:4b:e0:44:1f:cd:cb:d3:
         9d:9b:25:a8:4c:43:db:18:17:d6:fb:c5:b2:d5:bc:2a:63:aa:
         72:cd:fa:52:24:42:d3:a0:0c:30:35:27:85:4e:8f:87:6a:10:
         a0:b2:7d:14:ca:31:b7:85:80:92:1c:f1:2b:52:1d:01:6b:18:
         a8:06:ea:55:9d:7e:7e:cd:e7:2b:5a:b4:66:38:ef:ff:71:9f:
         1d:1e:6b:93:0f:b0:38:a3:c7:cd:c2:b8:1b:1b:5c:21:81:08:
         fe:b7:59:eb:9b:21:f9:6e:ed:51:90:e4:8b:3b:e6:30:51:49:
         91:77:c5:8d:d3:8a:5c:21:dc:79:a1:bc:f9:c3:ed:74:45:ef:
         d8:7a:01:fe:b2:50:69:6a:f5:56:dc:0d:a2:70:9e:4d:c8:41:
         28:21:ee:10:a2:89:96:a6:db:d3:b4:c0:09:8c:5a:46:4e:1b:
         43:b7:14:c3:24:5e:04:ba:5b:d7:df:fe:a0:92:94:72:8b:b9:
         52:77:e1:1e:08:ff:f0:0a:fe:7e:20:c3:0a:d8:84:c6:0b:3a:
         e3:be:36:24:7e:2e:6a:97:ad:c2:32:27:3b:f8:07:96:91:bb:
         6c:4c:d1:db
-----BEGIN CERTIFICATE-----
MIIDnzCCAoegAwIBAgIJAONo5DPMWTZxMA0GCSqGSIb3DQEBCwUAMGYxCzAJBgNV
BAYTAlNQMRIwEAYDVQQIDAlCYXJjZWxvbmExDjAMBgNVBAoMBWkyY2F0MQ4wDAYD
VQQLDAVYLjUwOTEPMA0GA1UEAwwGQ0FST09UMRIwEAYDVQQHDAlCYXJjZWxvbmEw
HhcNMTYwMzE1MTc1MTAwWhcNMjYwMzEzMTc1MTAwWjBmMQswCQYDVQQGEwJTUDES
MBAGA1UECAwJQmFyY2Vsb25hMQ4wDAYDVQQKDAVpMmNhdDEOMAwGA1UECwwFWC41
MDkxDzANBgNVBAMMBkNBUk9PVDESMBAGA1UEBwwJQmFyY2Vsb25hMIIBIjANBgkq
hkiG9w0BAQEFAAOCAQ8AMIIBCgKCAQEAtWu5aBVluDxhXs2etkG815pZdm/g58qC
9uIElUQwhUacJd4PtN463Im+TBNGiyZrdQGoh1axPlz0PuaIbItmWzW8Kj076SC6
cJ8VT313F6Y+kZ8wlomj+EOXpkBmt8vYpbnWInXjRtB2/pbBwJDKsWYAEnDKaAz1
lor4znmnfvc638bvHjm1fNyuQTZECUNz4EZLhfarjNUHK4q8oi4fLLLRzM4lGli0
dO3UHoPmQA5OzdlXIeMzWQZs2eBFbOB06TUEACdXvFplW7KPJFYW/flrfeNYgq2v
fj19OdIT0r3BeB7T2P2Q1fzdtKACYEEeyShNmf82FUzbbPOA/+iLmwIDAQABo1Aw
TjAdBgNVHQ4EFgQUmNrGyQWWtk5VMrDvxN6EvbAXqHMwHwYDVR0jBBgwFoAUmNrG
yQWWtk5VMrDvxN6EvbAXqHMwDAYDVR0TBAUwAwEB/zANBgkqhkiG9w0BAQsFAAOC
AQEAKeVP9YUORd+5x/xQkSeidWhWz4AMSW6VULsoVF1L4EQfzcvTnZslqExD2xgX
1vvFstW8KmOqcs36UiRC06AMMDUnhU6Ph2oQoLJ9FMoxt4WAkhzxK1IdAWsYqAbq
VZ1+fs3nK1q0Zjjv/3GfHR5rkw+wOKPHzcK4GxtcIYEI/rdZ65sh+W7tUZDkizvm
MFFJkXfFjdOKXCHceaG8+cPtdEXv2HoB/rJQaWr1VtwNonCeTchBKCHuEKKJlqbb
07TACYxaRk4bQ7cUwyReBLpb19/+oJKUcou5UnfhHgj/8Ar+fiDDCtiExgs64742
JH4uapetwjInO/gHlpG7bEzR2w==
-----END CERTIFICATE-----
