Certificate:
    Data:
        Version: 3 (0x2)
        Serial Number: 16386598155310413426 (0xe368e433cc593672)
    Signature Algorithm: sha256WithRSAEncryption
        Issuer: C=SP, ST=Barcelona, O=i2cat, OU=X.509, CN=CAROOT, L=Barcelona
        Validity
            Not Before: Mar 15 17:57:34 2016 GMT
            Not After : Feb  7 17:57:34 2019 GMT
        Subject: C=SP, ST=Barcelona, L=Barcelona, O=i2cat, OU=IT, CN=Test1.IRATI
        Subject Public Key Info:
            Public Key Algorithm: rsaEncryption
                Public-Key: (2048 bit)
                Modulus:
                    00:ba:f0:73:66:d2:09:78:5e:ff:9c:d5:1f:03:7a:
                    c8:5e:96:3c:2e:2f:07:36:fe:90:e6:2d:70:d8:a2:
                    8b:ae:80:e0:99:6a:64:ee:89:db:0e:b6:ad:06:72:
                    55:f6:ff:9d:b5:8c:88:e6:f7:cc:50:1b:32:67:3d:
                    5c:3b:59:be:9b:60:14:ed:2a:b7:76:8a:e6:50:1d:
                    e4:24:56:f4:88:da:06:d4:89:56:c7:a2:2a:26:80:
                    81:99:9d:d5:e5:ac:d1:eb:94:d6:ed:89:b6:77:d0:
                    cb:7e:9d:66:c1:11:c0:a8:90:62:5a:ce:67:4b:a8:
                    6c:05:10:01:fb:59:92:fc:71:3c:d6:01:10:ec:ea:
                    fd:fb:bb:21:31:fa:80:e7:5d:35:95:f2:f4:40:0d:
                    f2:ee:75:d5:c8:4d:50:77:cb:22:64:4c:bf:d9:78:
                    b7:df:31:87:40:fa:b9:fc:c6:ff:bd:66:05:a1:1a:
                    e6:eb:47:39:53:ad:32:a4:46:bb:ee:22:1d:c5:44:
                    88:d1:ff:f8:12:4a:2d:2d:bf:54:60:72:d6:63:bb:
                    76:aa:a8:32:df:f6:a4:e9:84:68:4f:dd:35:fc:d2:
                    b0:89:da:83:ff:96:eb:55:40:7e:41:4f:89:b3:b6:
                    9b:77:12:46:53:ac:ce:ca:01:98:a2:05:71:85:01:
                    75:27
                Exponent: 65537 (0x10001)
        X509v3 extensions:
            X509v3 Basic Constraints: 
                CA:FALSE
            Netscape Comment: 
                OpenSSL Generated Certificate
            X509v3 Subject Key Identifier: 
                B2:3A:64:06:78:6B:5C:6B:C6:6E:27:57:B3:9C:9B:65:81:52:6C:25
            X509v3 Authority Key Identifier: 
                keyid:98:DA:C6:C9:05:96:B6:4E:55:32:B0:EF:C4:DE:84:BD:B0:17:A8:73

    Signature Algorithm: sha256WithRSAEncryption
         af:0f:3f:54:56:88:d2:ec:df:ff:ee:89:b8:17:06:cb:77:95:
         ac:b8:a6:82:b5:b1:ef:bb:97:2e:5c:81:6b:a0:7f:fc:e9:be:
         26:d2:cd:a5:07:a8:91:2d:60:ec:8c:cf:2b:2d:3e:06:09:ef:
         dd:35:0c:e3:18:b4:f0:66:5b:07:8e:98:08:12:be:4c:97:65:
         7c:2f:0f:69:f2:25:1e:23:0d:a0:dc:bf:8c:db:86:9b:8f:9a:
         ab:0d:f4:08:83:86:20:b6:da:4a:57:cd:f8:08:1b:65:20:0a:
         22:35:b1:da:f3:7e:76:9f:57:a3:31:c6:e4:72:c2:1c:d1:50:
         2e:65:2f:1b:fe:46:00:bf:d3:80:95:4b:ce:1e:55:7d:a0:32:
         3e:57:60:89:1b:05:d3:c3:ec:b7:1f:7f:1d:51:28:9b:81:89:
         04:fc:e8:1f:46:9f:2e:35:fd:c8:fe:58:c1:3f:bc:29:24:12:
         e1:16:40:74:59:e7:93:20:34:42:d8:a9:5a:5f:ce:43:d9:0a:
         53:1e:d7:89:b3:ec:f7:1f:ff:68:00:04:05:e8:f9:11:e9:71:
         b9:63:9d:bc:77:06:f1:63:c9:cb:64:58:00:98:c9:68:b7:05:
         6d:41:9f:41:07:a9:14:23:a4:27:0b:21:6b:b7:ad:58:25:01:
         a6:5a:55:0a
-----BEGIN CERTIFICATE-----
MIIDzDCCArSgAwIBAgIJAONo5DPMWTZyMA0GCSqGSIb3DQEBCwUAMGYxCzAJBgNV
BAYTAlNQMRIwEAYDVQQIDAlCYXJjZWxvbmExDjAMBgNVBAoMBWkyY2F0MQ4wDAYD
VQQLDAVYLjUwOTEPMA0GA1UEAwwGQ0FST09UMRIwEAYDVQQHDAlCYXJjZWxvbmEw
HhcNMTYwMzE1MTc1NzM0WhcNMTkwMjA3MTc1NzM0WjBoMQswCQYDVQQGEwJTUDES
MBAGA1UECAwJQmFyY2Vsb25hMRIwEAYDVQQHDAlCYXJjZWxvbmExDjAMBgNVBAoM
BWkyY2F0MQswCQYDVQQLDAJJVDEUMBIGA1UEAwwLVGVzdDEuSVJBVEkwggEiMA0G
CSqGSIb3DQEBAQUAA4IBDwAwggEKAoIBAQC68HNm0gl4Xv+c1R8DesheljwuLwc2
/pDmLXDYoouugOCZamTuidsOtq0GclX2/521jIjm98xQGzJnPVw7Wb6bYBTtKrd2
iuZQHeQkVvSI2gbUiVbHoiomgIGZndXlrNHrlNbtibZ30Mt+nWbBEcCokGJazmdL
qGwFEAH7WZL8cTzWARDs6v37uyEx+oDnXTWV8vRADfLuddXITVB3yyJkTL/ZeLff
MYdA+rn8xv+9ZgWhGubrRzlTrTKkRrvuIh3FRIjR//gSSi0tv1RgctZju3aqqDLf
9qTphGhP3TX80rCJ2oP/lutVQH5BT4mztpt3EkZTrM7KAZiiBXGFAXUnAgMBAAGj
ezB5MAkGA1UdEwQCMAAwLAYJYIZIAYb4QgENBB8WHU9wZW5TU0wgR2VuZXJhdGVk
IENlcnRpZmljYXRlMB0GA1UdDgQWBBSyOmQGeGtca8ZuJ1eznJtlgVJsJTAfBgNV
HSMEGDAWgBSY2sbJBZa2TlUysO/E3oS9sBeoczANBgkqhkiG9w0BAQsFAAOCAQEA
rw8/VFaI0uzf/+6JuBcGy3eVrLimgrWx77uXLlyBa6B//Om+JtLNpQeokS1g7IzP
Ky0+Bgnv3TUM4xi08GZbB46YCBK+TJdlfC8PafIlHiMNoNy/jNuGm4+aqw30CIOG
ILbaSlfN+AgbZSAKIjWx2vN+dp9XozHG5HLCHNFQLmUvG/5GAL/TgJVLzh5VfaAy
PldgiRsF08Pstx9/HVEom4GJBPzoH0afLjX9yP5YwT+8KSQS4RZAdFnnkyA0Qtip
Wl/OQ9kKUx7XibPs9x//aAAEBej5EelxuWOdvHcG8WPJy2RYAJjJaLcFbUGfQQep
FCOkJwsha7etWCUBplpVCg==
-----END CERTIFICATE-----
