Certificate:
    Data:
        Version: 3 (0x2)
        Serial Number: 16386598155310413427 (0xe368e433cc593673)
    Signature Algorithm: sha256WithRSAEncryption
        Issuer: C=SP, ST=Barcelona, O=i2cat, OU=X.509, CN=CAROOT, L=Barcelona
        Validity
            Not Before: Mar 15 18:05:01 2016 GMT
            Not After : Feb  7 18:05:01 2019 GMT
        Subject: C=SP, ST=Barcelona, L=Barcelona, O=i2cat, OU=IT, CN=Test2.IRATI
        Subject Public Key Info:
            Public Key Algorithm: rsaEncryption
                Public-Key: (2048 bit)
                Modulus:
                    00:de:46:31:a8:55:f2:80:52:15:3a:67:d9:1f:60:
                    a2:5b:5c:d4:97:ca:47:17:8c:dc:26:9e:fd:76:e4:
                    e9:cc:ae:0f:64:7f:f1:db:e4:15:26:ce:22:49:76:
                    4c:bb:82:ed:bd:11:ee:90:e4:14:75:c9:a6:3a:4a:
                    da:f5:47:17:a1:ec:a5:3e:52:c3:7b:90:de:d7:05:
                    6f:0f:a1:37:c1:13:71:04:25:dc:e7:17:d7:1d:0e:
                    f9:4e:0b:0d:2a:42:88:d8:5c:98:63:8c:1b:c5:3e:
                    aa:c1:80:d4:1a:df:c0:3c:ee:6f:2c:31:5b:e7:53:
                    e9:5e:29:17:27:6f:d5:52:3b:c7:94:3b:67:02:13:
                    6b:34:82:6b:bb:8d:19:95:dd:80:2f:d4:63:a9:57:
                    1b:f5:52:a0:6c:a0:34:6d:f7:88:2d:0c:81:ae:c7:
                    ec:4f:bb:0f:68:cc:94:52:07:43:c6:74:9c:2d:a1:
                    20:37:a6:6a:43:a7:1a:0c:47:0c:8d:27:0e:94:0a:
                    a0:c4:74:21:c4:ca:16:b8:da:dd:d9:de:c9:28:b0:
                    84:a6:dc:8e:60:14:be:f3:8e:20:b2:33:c0:42:62:
                    a3:7e:f0:7e:be:44:9c:51:31:de:8c:bc:bf:4c:cf:
                    84:89:a5:b6:f5:73:ab:7b:00:c4:f6:24:80:10:b3:
                    8b:a3
                Exponent: 65537 (0x10001)
        X509v3 extensions:
            X509v3 Basic Constraints: 
                CA:FALSE
            Netscape Comment: 
                OpenSSL Generated Certificate
            X509v3 Subject Key Identifier: 
                B9:B9:C7:CE:87:81:E2:3C:99:61:3F:71:B3:C0:1C:9E:7C:9E:01:07
            X509v3 Authority Key Identifier: 
                keyid:98:DA:C6:C9:05:96:B6:4E:55:32:B0:EF:C4:DE:84:BD:B0:17:A8:73

    Signature Algorithm: sha256WithRSAEncryption
         08:ce:4d:cd:e5:21:b5:9a:53:22:70:90:9f:a2:a1:08:4d:28:
         d6:c6:ef:17:b0:92:bd:77:95:32:8c:c9:c8:c9:ee:45:65:4f:
         8d:a7:c9:1f:df:05:03:ec:a8:38:0b:61:e7:7b:e0:cc:22:30:
         99:da:e0:8b:fb:2f:90:ed:43:1c:ae:bb:18:65:8a:03:32:ce:
         84:45:2d:bc:18:ce:1c:45:c0:7e:4c:7b:39:3b:88:b7:5d:95:
         5a:55:91:23:5d:21:e3:69:da:4f:0d:57:ae:a5:80:72:88:2a:
         e4:e8:61:8c:86:e2:6f:60:52:fe:de:fa:9f:40:ad:a8:5e:0a:
         a2:e5:61:02:be:07:b6:92:79:ad:07:dd:da:ec:e4:4f:c7:5a:
         94:65:88:ef:a4:c0:8d:3b:de:93:5f:e1:a6:37:81:47:16:0c:
         ec:06:e8:d1:fe:50:53:31:41:89:a5:8b:6b:32:e7:35:f0:6e:
         c2:7b:65:ca:70:c3:7d:13:77:25:35:b6:fa:82:e8:90:ae:d3:
         a1:55:d8:ee:61:5d:0a:91:33:22:99:25:37:a8:8b:73:02:b3:
         a5:7e:84:ab:8c:6f:e0:bc:c6:bc:cd:15:c4:a4:38:d9:7f:a8:
         68:9b:94:09:a6:bf:8f:50:ae:b6:c5:9d:27:bd:ac:40:7f:de:
         d0:b9:3d:aa
-----BEGIN CERTIFICATE-----
MIIDzDCCArSgAwIBAgIJAONo5DPMWTZzMA0GCSqGSIb3DQEBCwUAMGYxCzAJBgNV
BAYTAlNQMRIwEAYDVQQIDAlCYXJjZWxvbmExDjAMBgNVBAoMBWkyY2F0MQ4wDAYD
VQQLDAVYLjUwOTEPMA0GA1UEAwwGQ0FST09UMRIwEAYDVQQHDAlCYXJjZWxvbmEw
HhcNMTYwMzE1MTgwNTAxWhcNMTkwMjA3MTgwNTAxWjBoMQswCQYDVQQGEwJTUDES
MBAGA1UECAwJQmFyY2Vsb25hMRIwEAYDVQQHDAlCYXJjZWxvbmExDjAMBgNVBAoM
BWkyY2F0MQswCQYDVQQLDAJJVDEUMBIGA1UEAwwLVGVzdDIuSVJBVEkwggEiMA0G
CSqGSIb3DQEBAQUAA4IBDwAwggEKAoIBAQDeRjGoVfKAUhU6Z9kfYKJbXNSXykcX
jNwmnv125OnMrg9kf/Hb5BUmziJJdky7gu29Ee6Q5BR1yaY6Str1Rxeh7KU+UsN7
kN7XBW8PoTfBE3EEJdznF9cdDvlOCw0qQojYXJhjjBvFPqrBgNQa38A87m8sMVvn
U+leKRcnb9VSO8eUO2cCE2s0gmu7jRmV3YAv1GOpVxv1UqBsoDRt94gtDIGux+xP
uw9ozJRSB0PGdJwtoSA3pmpDpxoMRwyNJw6UCqDEdCHEyha42t3Z3skosISm3I5g
FL7zjiCyM8BCYqN+8H6+RJxRMd6MvL9Mz4SJpbb1c6t7AMT2JIAQs4ujAgMBAAGj
ezB5MAkGA1UdEwQCMAAwLAYJYIZIAYb4QgENBB8WHU9wZW5TU0wgR2VuZXJhdGVk
IENlcnRpZmljYXRlMB0GA1UdDgQWBBS5ucfOh4HiPJlhP3GzwByefJ4BBzAfBgNV
HSMEGDAWgBSY2sbJBZa2TlUysO/E3oS9sBeoczANBgkqhkiG9w0BAQsFAAOCAQEA
CM5NzeUhtZpTInCQn6KhCE0o1sbvF7CSvXeVMozJyMnuRWVPjafJH98FA+yoOAth
53vgzCIwmdrgi/svkO1DHK67GGWKAzLOhEUtvBjOHEXAfkx7OTuIt12VWlWRI10h
42naTw1XrqWAcogq5OhhjIbib2BS/t76n0CtqF4KouVhAr4HtpJ5rQfd2uzkT8da
lGWI76TAjTvek1/hpjeBRxYM7Abo0f5QUzFBiaWLazLnNfBuwntlynDDfRN3JTW2
+oLokK7ToVXY7mFdCpEzIpklN6iLcwKzpX6Eq4xv4LzGvM0VxKQ42X+oaJuUCaa/
j1CutsWdJ72sQH/e0Lk9qg==
-----END CERTIFICATE-----
